; Function Attrs: mustprogress uwtable
define void @_ZN4cvc58internal7options7ioutils23applyModelUninterpPrintERSt8ios_baseNS1_22ModelUninterpPrintModeE(ptr noundef nonnull align 8 dereferenceable(216) %0, i32 noundef %1) local_unnamed_addr #6 {
  %3 = load i32, ptr @_ZN4cvc58internal7options7ioutilsL23s_iosModelUninterpPrintE, align 4, !tbaa !7
  %4 = getelementptr inbounds nuw i8, ptr %0, i64 192
  %5 = load i32, ptr %4, align 8, !tbaa !9
  %6 = icmp ult i32 %3, %5
  br i1 %6, label %7, label %12

7:                                                ; preds = %2
  %8 = getelementptr inbounds nuw i8, ptr %0, i64 200
  %9 = load ptr, ptr %8, align 8, !tbaa !20
  %10 = sext i32 %3 to i64
  %11 = getelementptr inbounds %"struct.std::ios_base::_Words", ptr %9, i64 %10
  br label %_ZN4cvc58internal7options7ioutils12_GLOBAL__N_17setDataINS1_22ModelUninterpPrintModeEEEvRSt8ios_baseiT_.exit

12:                                               ; preds = %2
  %13 = tail call noundef nonnull align 8 dereferenceable(16) ptr @_ZNSt8ios_base13_M_grow_wordsEib(ptr noundef nonnull align 8 dereferenceable(216) %0, i32 noundef %3, i1 noundef zeroext true)
  br label %_ZN4cvc58internal7options7ioutils12_GLOBAL__N_17setDataINS1_22ModelUninterpPrintModeEEEvRSt8ios_baseiT_.exit

_ZN4cvc58internal7options7ioutils12_GLOBAL__N_17setDataINS1_22ModelUninterpPrintModeEEEvRSt8ios_baseiT_.exit: ; preds = %7, %12
  %14 = phi ptr [ %11, %7 ], [ %13, %12 ]
  %15 = sext i32 %1 to i64
  %16 = add nsw i64 %15, 1024
  %17 = getelementptr inbounds nuw i8, ptr %14, i64 8
  store i64 %16, ptr %17, align 8, !tbaa !21
  ret void
}